target datalayout = "e-m:e-p270:32:32-p271:32:32-p272:64:64-i64:64-i128:128-f80:128-n8:16:32:64-S128"
target triple = "x86_64-pc-linux-gnu"

%struct.IPAddressOrRange_st = type { i32, %union.anon.0 }
%union.anon.0 = type { ptr }

; Function Attrs: nounwind uwtable
define internal i32 @length_from_afi(i32 noundef %0) #0 {
  %2 = alloca i32, align 4
  %3 = alloca i32, align 4
  store i32 %0, ptr %3, align 4, !tbaa !37
  %4 = load i32, ptr %3, align 4, !tbaa !37
  switch i32 %4, label %7 [
    i32 1, label %5
    i32 2, label %6
  ]

5:                                                ; preds = %1
  store i32 4, ptr %2, align 4
  br label %8

6:                                                ; preds = %1
  store i32 16, ptr %2, align 4
  br label %8

7:                                                ; preds = %1
  store i32 0, ptr %2, align 4
  br label %8

8:                                                ; preds = %7, %6, %5
  %9 = load i32, ptr %2, align 4
  ret i32 %9
}

; Function Attrs: nounwind uwtable
define i32 @X509v3_addr_get_range(ptr noundef %0, i32 noundef %1, ptr noundef %2, ptr noundef %3, i32 noundef %4) #0 {
  %6 = alloca i32, align 4
  %7 = alloca ptr, align 8
  %8 = alloca i32, align 4
  %9 = alloca ptr, align 8
  %10 = alloca ptr, align 8
  %11 = alloca i32, align 4
  %12 = alloca i32, align 4
  %13 = alloca i32, align 4
  store ptr %0, ptr %7, align 8, !tbaa !16
  store i32 %1, ptr %8, align 4, !tbaa !37
  store ptr %2, ptr %9, align 8, !tbaa !45
  store ptr %3, ptr %10, align 8, !tbaa !45
  store i32 %4, ptr %11, align 4, !tbaa !37
  call void @llvm.lifetime.start.p0(i64 4, ptr %12) #9
  %14 = load i32, ptr %8, align 4, !tbaa !37
  %15 = call i32 @length_from_afi(i32 noundef %14)
  store i32 %15, ptr %12, align 4, !tbaa !37
  %16 = load ptr, ptr %7, align 8, !tbaa !16
  %17 = icmp eq ptr %16, null
  br i1 %17, label %48, label %18

18:                                               ; preds = %5
  %19 = load ptr, ptr %9, align 8, !tbaa !45
  %20 = icmp eq ptr %19, null
  br i1 %20, label %48, label %21

21:                                               ; preds = %18
  %22 = load ptr, ptr %10, align 8, !tbaa !45
  %23 = icmp eq ptr %22, null
  br i1 %23, label %48, label %24

24:                                               ; preds = %21
  %25 = load i32, ptr %12, align 4, !tbaa !37
  %26 = icmp eq i32 %25, 0
  br i1 %26, label %48, label %27

27:                                               ; preds = %24
  %28 = load i32, ptr %11, align 4, !tbaa !37
  %29 = load i32, ptr %12, align 4, !tbaa !37
  %30 = icmp slt i32 %28, %29
  br i1 %30, label %48, label %31

31:                                               ; preds = %27
  %32 = load ptr, ptr %7, align 8, !tbaa !16
  %33 = getelementptr inbounds nuw %struct.IPAddressOrRange_st, ptr %32, i32 0, i32 0
  %34 = load i32, ptr %33, align 8, !tbaa !48
  %35 = icmp ne i32 %34, 0
  br i1 %35, label %36, label %41

36:                                               ; preds = %31
  %37 = load ptr, ptr %7, align 8, !tbaa !16
  %38 = getelementptr inbounds nuw %struct.IPAddressOrRange_st, ptr %37, i32 0, i32 0
  %39 = load i32, ptr %38, align 8, !tbaa !48
  %40 = icmp ne i32 %39, 1
  br i1 %40, label %48, label %41

41:                                               ; preds = %36, %31
  %42 = load ptr, ptr %7, align 8, !tbaa !16
  %43 = load ptr, ptr %9, align 8, !tbaa !45
  %44 = load ptr, ptr %10, align 8, !tbaa !45
  %45 = load i32, ptr %12, align 4, !tbaa !37
  %46 = call i32 @extract_min_max(ptr noundef %42, ptr noundef %43, ptr noundef %44, i32 noundef %45)
  %47 = icmp ne i32 %46, 0
  br i1 %47, label %49, label %48

48:                                               ; preds = %41, %36, %27, %24, %21, %18, %5
  store i32 0, ptr %6, align 4
  store i32 1, ptr %13, align 4
  br label %51

49:                                               ; preds = %41
  %50 = load i32, ptr %12, align 4, !tbaa !37
  store i32 %50, ptr %6, align 4
  store i32 1, ptr %13, align 4
  br label %51

51:                                               ; preds = %49, %48
  call void @llvm.lifetime.end.p0(i64 4, ptr %12) #9
  %52 = load i32, ptr %6, align 4
  ret i32 %52
}