; Function Attrs: mustprogress nofree norecurse nosync nounwind willreturn memory(readwrite, inaccessiblemem: none) uwtable
define range(i32 0, 17) i32 @X509v3_addr_get_range(ptr noundef captures(address_is_null) %0, i32 noundef %1, ptr noundef captures(address_is_null) %2, ptr noundef captures(address_is_null) %3, i32 noundef %4) local_unnamed_addr #5 {
  %switch.selectcmp.i = icmp eq i32 %1, 2
  %switch.select.i = select i1 %switch.selectcmp.i, i32 16, i32 0
  %switch.selectcmp2.i = icmp eq i32 %1, 1
  %switch.select3.i = select i1 %switch.selectcmp2.i, i32 4, i32 %switch.select.i
  %6 = icmp eq ptr %0, null
  %7 = icmp eq ptr %2, null
  %or.cond = or i1 %6, %7
  %8 = icmp eq ptr %3, null
  %or.cond3 = or i1 %or.cond, %8
  %9 = icmp eq i32 %switch.select3.i, 0
  %or.cond5 = or i1 %or.cond3, %9
  %10 = icmp slt i32 %4, %switch.select3.i
  %or.cond26 = or i1 %10, %or.cond5
  br i1 %or.cond26, label %15, label %11

11:                                               ; preds = %5
  %12 = load i32, ptr %0, align 8, !tbaa !25
  %switch = icmp ult i32 %12, 2
  br i1 %switch, label %13, label %15

13:                                               ; preds = %11
  %14 = tail call fastcc i32 @extract_min_max(ptr noundef nonnull %0, ptr noundef %2, ptr noundef %3, i32 noundef %switch.select3.i)
  %.not25 = icmp eq i32 %14, 0
  %spec.select = select i1 %.not25, i32 0, i32 %switch.select3.i
  br label %15

15:                                               ; preds = %13, %11, %5
  %.0 = phi i32 [ 0, %11 ], [ 0, %5 ], [ %spec.select, %13 ]
  ret i32 %.0
}